(lp0
(dp1
S'date'
p2
F1356933000.0
sS'status'
p3
I00
sa(dp4
g2
F1357023600.0
sg3
I00
sa(dp5
g2
F1357110000.0
sg3
I00
sa(dp6
g2
F1357196400.0
sg3
I00
sa(dp7
g2
F1357282800.0
sg3
I00
sa(dp8
g2
F1357537800.0
sg3
I01
sa(dp9
g2
F1357628400.0
sg3
I01
sa(dp10
g2
F1357714800.0
sg3
I01
sa(dp11
g2
F1357801200.0
sg3
I01
sa(dp12
g2
F1357887600.0
sg3
I01
sa.